target datalayout = "e-m:e-p270:32:32-p271:32:32-p272:64:64-i64:64-i128:128-f80:128-n8:16:32:64-S128"
target triple = "x86_64-pc-linux-gnu"

%"struct.duckdb::roaring::ContainerMetadata" = type { i8, i8, i16 }

; Function Attrs: mustprogress nounwind uwtable
define linkonce_odr noundef i64 @_ZNK6duckdb7roaring17ContainerMetadata11CardinalityEv(ptr noundef nonnull align 2 dereferenceable(4) %0) #2 comdat align 2 {
  %2 = alloca ptr, align 8
  store ptr %0, ptr %2, align 8, !tbaa !284
  %3 = load ptr, ptr %2, align 8
  %4 = getelementptr inbounds nuw %"struct.duckdb::roaring::ContainerMetadata", ptr %3, i32 0, i32 2
  %5 = load i16, ptr %4, align 2, !tbaa !283
  %6 = zext i16 %5 to i64
  ret i64 %6
}

; Function Attrs: mustprogress nounwind uwtable
define linkonce_odr noundef i64 @_ZNK6duckdb7roaring17ContainerMetadata12NumberOfRunsEv(ptr noundef nonnull align 2 dereferenceable(4) %0) #2 comdat align 2 {
  %2 = alloca ptr, align 8
  store ptr %0, ptr %2, align 8, !tbaa !284
  %3 = load ptr, ptr %2, align 8
  %4 = getelementptr inbounds nuw %"struct.duckdb::roaring::ContainerMetadata", ptr %3, i32 0, i32 2
  %5 = load i16, ptr %4, align 2, !tbaa !283
  %6 = zext i16 %5 to i64
  ret i64 %6
}

; Function Attrs: mustprogress nounwind uwtable
define linkonce_odr noundef zeroext i1 @_ZNK6duckdb7roaring17ContainerMetadata5IsRunEv(ptr noundef nonnull align 2 dereferenceable(4) %0) #2 comdat align 2 {
  %2 = alloca ptr, align 8
  store ptr %0, ptr %2, align 8, !tbaa !284
  %3 = load ptr, ptr %2, align 8
  %4 = getelementptr inbounds nuw %"struct.duckdb::roaring::ContainerMetadata", ptr %3, i32 0, i32 0
  %5 = load i8, ptr %4, align 2, !tbaa !280
  %6 = icmp eq i8 %5, 0
  ret i1 %6
}

; Function Attrs: mustprogress nounwind uwtable
define linkonce_odr noundef zeroext i1 @_ZNK6duckdb7roaring17ContainerMetadata14IsUncompressedEv(ptr noundef nonnull align 2 dereferenceable(4) %0) #2 comdat align 2 {
  %2 = alloca ptr, align 8
  store ptr %0, ptr %2, align 8, !tbaa !284
  %3 = load ptr, ptr %2, align 8
  %4 = getelementptr inbounds nuw %"struct.duckdb::roaring::ContainerMetadata", ptr %3, i32 0, i32 0
  %5 = load i8, ptr %4, align 2, !tbaa !280
  %6 = icmp eq i8 %5, 2
  ret i1 %6
}

; Function Attrs: mustprogress uwtable
define noundef i64 @_ZNK6duckdb7roaring17ContainerMetadata18GetDataSizeInBytesEm(ptr noundef nonnull align 2 dereferenceable(4) %0, i64 noundef %1) #0 align 2 {
  %3 = alloca i64, align 8
  %4 = alloca ptr, align 8
  %5 = alloca i64, align 8
  %6 = alloca i64, align 8
  %7 = alloca i32, align 4
  %8 = alloca i64, align 8
  store ptr %0, ptr %4, align 8, !tbaa !284
  store i64 %1, ptr %5, align 8, !tbaa !8
  %9 = load ptr, ptr %4, align 8
  %10 = call noundef zeroext i1 @_ZNK6duckdb7roaring17ContainerMetadata14IsUncompressedEv(ptr noundef nonnull align 2 dereferenceable(4) %9)
  br i1 %10, label %11, label %15

11:                                               ; preds = %2
  %12 = load i64, ptr %5, align 8, !tbaa !8
  %13 = udiv i64 %12, 64
  %14 = mul i64 %13, 8
  store i64 %14, ptr %3, align 8
  br label %42

15:                                               ; preds = %2
  %16 = call noundef zeroext i1 @_ZNK6duckdb7roaring17ContainerMetadata5IsRunEv(ptr noundef nonnull align 2 dereferenceable(4) %9)
  br i1 %16, label %17, label %30

17:                                               ; preds = %15
  call void @llvm.lifetime.start.p0(i64 8, ptr %6) #19
  %18 = call noundef i64 @_ZNK6duckdb7roaring17ContainerMetadata12NumberOfRunsEv(ptr noundef nonnull align 2 dereferenceable(4) %9)
  store i64 %18, ptr %6, align 8, !tbaa !8
  %19 = load i64, ptr %6, align 8, !tbaa !8
  %20 = icmp uge i64 %19, 4
  br i1 %20, label %21, label %26

21:                                               ; preds = %17
  %22 = load i64, ptr %6, align 8, !tbaa !8
  %23 = mul i64 1, %22
  %24 = mul i64 %23, 2
  %25 = add i64 8, %24
  store i64 %25, ptr %3, align 8
  store i32 1, ptr %7, align 4
  br label %29

26:                                               ; preds = %17
  %27 = load i64, ptr %6, align 8, !tbaa !8
  %28 = mul i64 4, %27
  store i64 %28, ptr %3, align 8
  store i32 1, ptr %7, align 4
  br label %29

29:                                               ; preds = %26, %21
  call void @llvm.lifetime.end.p0(i64 8, ptr %6) #19
  br label %42

30:                                               ; preds = %15
  call void @llvm.lifetime.start.p0(i64 8, ptr %8) #19
  %31 = call noundef i64 @_ZNK6duckdb7roaring17ContainerMetadata11CardinalityEv(ptr noundef nonnull align 2 dereferenceable(4) %9)
  store i64 %31, ptr %8, align 8, !tbaa !8
  %32 = load i64, ptr %8, align 8, !tbaa !8
  %33 = icmp uge i64 %32, 8
  br i1 %33, label %34, label %38

34:                                               ; preds = %30
  %35 = load i64, ptr %8, align 8, !tbaa !8
  %36 = mul i64 1, %35
  %37 = add i64 8, %36
  store i64 %37, ptr %3, align 8
  store i32 1, ptr %7, align 4
  br label %41

38:                                               ; preds = %30
  %39 = load i64, ptr %8, align 8, !tbaa !8
  %40 = mul i64 2, %39
  store i64 %40, ptr %3, align 8
  store i32 1, ptr %7, align 4
  br label %41

41:                                               ; preds = %38, %34
  call void @llvm.lifetime.end.p0(i64 8, ptr %8) #19
  br label %42

42:                                               ; preds = %41, %29, %11
  %43 = load i64, ptr %3, align 8
  ret i64 %43
}