; Function Attrs: mustprogress nofree norecurse nosync nounwind willreturn memory(argmem: read) uwtable
define noundef range(i64 0, 2305843009213693945) i64 @_ZNK6duckdb7roaring17ContainerMetadata18GetDataSizeInBytesEm(ptr noundef nonnull readonly align 2 captures(none) dereferenceable(4) %0, i64 noundef %1) local_unnamed_addr #9 align 2 {
  %3 = load i8, ptr %0, align 2, !tbaa !289
  switch i8 %3, label %15 [
    i8 2, label %4
    i8 0, label %7
  ]

4:                                                ; preds = %2
  %5 = lshr i64 %1, 3
  %6 = and i64 %5, 2305843009213693944
  br label %22

7:                                                ; preds = %2
  %8 = getelementptr inbounds nuw i8, ptr %0, i64 2
  %9 = load i16, ptr %8, align 2, !tbaa !292
  %10 = zext i16 %9 to i64
  %11 = icmp ugt i16 %9, 3
  %12 = shl nuw nsw i64 %10, 1
  %13 = add nuw nsw i64 %12, 8
  %14 = shl nuw nsw i64 %10, 2
  %.1 = select i1 %11, i64 %13, i64 %14
  br label %22

15:                                               ; preds = %2
  %16 = getelementptr inbounds nuw i8, ptr %0, i64 2
  %17 = load i16, ptr %16, align 2, !tbaa !292
  %18 = zext i16 %17 to i64
  %19 = icmp ugt i16 %17, 7
  %20 = add nuw nsw i64 %18, 8
  %21 = shl nuw nsw i64 %18, 1
  %.2 = select i1 %19, i64 %20, i64 %21
  br label %22

22:                                               ; preds = %15, %7, %4
  %.0 = phi i64 [ %6, %4 ], [ %.1, %7 ], [ %.2, %15 ]
  ret i64 %.0
}